target datalayout = "e-m:e-p270:32:32-p271:32:32-p272:64:64-i64:64-i128:128-f80:128-n8:16:32:64-S128"
target triple = "x86_64-pc-linux-gnu"

%class.zstring = type { %class.buffer }
%class.buffer = type { ptr, i32, i32, [64 x i8] }

; Function Attrs: mustprogress nounwind uwtable
define linkonce_odr hidden noundef i32 @_ZNK6bufferIjLb1ELj16EE4sizeEv(ptr noundef nonnull align 8 dereferenceable(80) %0) #6 comdat align 2 {
  %2 = alloca ptr, align 8
  store ptr %0, ptr %2, align 8, !tbaa !21
  %3 = load ptr, ptr %2, align 8
  %4 = getelementptr inbounds nuw %class.buffer, ptr %3, i32 0, i32 1
  %5 = load i32, ptr %4, align 8, !tbaa !25
  ret i32 %5
}

; Function Attrs: mustprogress uwtable
define linkonce_odr hidden noundef ptr @_ZN6bufferIjLb1ELj16EE3endEv(ptr noundef nonnull align 8 dereferenceable(80) %0) #4 comdat align 2 {
  %2 = alloca ptr, align 8
  store ptr %0, ptr %2, align 8, !tbaa !21
  %3 = load ptr, ptr %2, align 8
  %4 = getelementptr inbounds nuw %class.buffer, ptr %3, i32 0, i32 0
  %5 = load ptr, ptr %4, align 8, !tbaa !23
  %6 = call noundef i32 @_ZNK6bufferIjLb1ELj16EE4sizeEv(ptr noundef nonnull align 8 dereferenceable(80) %3)
  %7 = zext i32 %6 to i64
  %8 = getelementptr inbounds nuw i32, ptr %5, i64 %7
  ret ptr %8
}

; Function Attrs: mustprogress nounwind uwtable
define linkonce_odr hidden noundef ptr @_ZN6bufferIjLb1ELj16EE5beginEv(ptr noundef nonnull align 8 dereferenceable(80) %0) #6 comdat align 2 {
  %2 = alloca ptr, align 8
  store ptr %0, ptr %2, align 8, !tbaa !21
  %3 = load ptr, ptr %2, align 8
  %4 = getelementptr inbounds nuw %class.buffer, ptr %3, i32 0, i32 0
  %5 = load ptr, ptr %4, align 8, !tbaa !23
  ret ptr %5
}

; Function Attrs: mustprogress uwtable
define linkonce_odr hidden void @_Z13dealloc_svectIjEvPT_(ptr noundef %0) #4 comdat {
  %2 = alloca ptr, align 8
  store ptr %0, ptr %2, align 8, !tbaa !11
  %3 = load ptr, ptr %2, align 8, !tbaa !11
  %4 = icmp eq ptr %3, null
  br i1 %4, label %5, label %6

5:                                                ; preds = %1
  br label %8

6:                                                ; preds = %1
  %7 = load ptr, ptr %2, align 8, !tbaa !11
  call void @_ZN6memory10deallocateEPv(ptr noundef %7)
  br label %8

8:                                                ; preds = %6, %5
  ret void
}

; Function Attrs: mustprogress uwtable
define linkonce_odr hidden void @_ZN6bufferIjLb1ELj16EE16destroy_elementsEv(ptr noundef nonnull align 8 dereferenceable(80) %0) #4 comdat align 2 {
  %2 = alloca ptr, align 8
  %3 = alloca ptr, align 8
  %4 = alloca ptr, align 8
  store ptr %0, ptr %2, align 8, !tbaa !21
  %5 = load ptr, ptr %2, align 8
  call void @llvm.lifetime.start.p0(i64 8, ptr %3) #3
  %6 = call noundef ptr @_ZN6bufferIjLb1ELj16EE5beginEv(ptr noundef nonnull align 8 dereferenceable(80) %5)
  store ptr %6, ptr %3, align 8, !tbaa !11
  call void @llvm.lifetime.start.p0(i64 8, ptr %4) #3
  %7 = call noundef ptr @_ZN6bufferIjLb1ELj16EE3endEv(ptr noundef nonnull align 8 dereferenceable(80) %5)
  store ptr %7, ptr %4, align 8, !tbaa !11
  br label %8

8:                                                ; preds = %13, %1
  %9 = load ptr, ptr %3, align 8, !tbaa !11
  %10 = load ptr, ptr %4, align 8, !tbaa !11
  %11 = icmp ne ptr %9, %10
  br i1 %11, label %12, label %16

12:                                               ; preds = %8
  br label %13

13:                                               ; preds = %12
  %14 = load ptr, ptr %3, align 8, !tbaa !11
  %15 = getelementptr inbounds nuw i32, ptr %14, i32 1
  store ptr %15, ptr %3, align 8, !tbaa !11
  br label %8, !llvm.loop !85

16:                                               ; preds = %8
  call void @llvm.lifetime.end.p0(i64 8, ptr %4) #3
  call void @llvm.lifetime.end.p0(i64 8, ptr %3) #3
  ret void
}

; Function Attrs: mustprogress uwtable
define linkonce_odr hidden void @_ZN6bufferIjLb1ELj16EE11free_memoryEv(ptr noundef nonnull align 8 dereferenceable(80) %0) #4 comdat align 2 {
  %2 = alloca ptr, align 8
  store ptr %0, ptr %2, align 8, !tbaa !21
  %3 = load ptr, ptr %2, align 8
  %4 = getelementptr inbounds nuw %class.buffer, ptr %3, i32 0, i32 0
  %5 = load ptr, ptr %4, align 8, !tbaa !23
  %6 = getelementptr inbounds nuw %class.buffer, ptr %3, i32 0, i32 3
  %7 = getelementptr inbounds [64 x i8], ptr %6, i64 0, i64 0
  %8 = icmp ne ptr %5, %7
  br i1 %8, label %9, label %12

9:                                                ; preds = %1
  %10 = getelementptr inbounds nuw %class.buffer, ptr %3, i32 0, i32 0
  %11 = load ptr, ptr %10, align 8, !tbaa !23
  call void @_Z13dealloc_svectIjEvPT_(ptr noundef %11)
  br label %12

12:                                               ; preds = %9, %1
  ret void
}

; Function Attrs: noinline noreturn nounwind uwtable
define linkonce_odr hidden void @__clang_call_terminate(ptr noundef %0) #9 comdat {
  %2 = call ptr @__cxa_begin_catch(ptr %0) #3
  call void @_ZSt9terminatev() #14
  unreachable
}

; Function Attrs: mustprogress uwtable
define linkonce_odr hidden void @_ZN6bufferIjLb1ELj16EE7destroyEv(ptr noundef nonnull align 8 dereferenceable(80) %0) #4 comdat align 2 {
  %2 = alloca ptr, align 8
  store ptr %0, ptr %2, align 8, !tbaa !21
  %3 = load ptr, ptr %2, align 8
  call void @_ZN6bufferIjLb1ELj16EE16destroy_elementsEv(ptr noundef nonnull align 8 dereferenceable(80) %3)
  call void @_ZN6bufferIjLb1ELj16EE11free_memoryEv(ptr noundef nonnull align 8 dereferenceable(80) %3)
  ret void
}

; Function Attrs: mustprogress uwtable
define linkonce_odr hidden void @_ZN6bufferIjLb1ELj16EE6expandEv(ptr noundef nonnull align 8 dereferenceable(80) %0) #4 comdat align 2 {
  %2 = alloca ptr, align 8
  %3 = alloca i32, align 4
  %4 = alloca ptr, align 8
  %5 = alloca i32, align 4
  store ptr %0, ptr %2, align 8, !tbaa !21
  %6 = load ptr, ptr %2, align 8
  call void @llvm.lifetime.start.p0(i64 4, ptr %3) #3
  %7 = getelementptr inbounds nuw %class.buffer, ptr %6, i32 0, i32 2
  %8 = load i32, ptr %7, align 4, !tbaa !26
  %9 = shl i32 %8, 1
  store i32 %9, ptr %3, align 4, !tbaa !16
  call void @llvm.lifetime.start.p0(i64 8, ptr %4) #3
  %10 = load i32, ptr %3, align 4, !tbaa !16
  %11 = zext i32 %10 to i64
  %12 = mul i64 4, %11
  %13 = call noalias noundef ptr @_ZN6memory8allocateEm(i64 noundef %12)
  store ptr %13, ptr %4, align 8, !tbaa !11
  call void @llvm.lifetime.start.p0(i64 4, ptr %5) #3
  store i32 0, ptr %5, align 4, !tbaa !16
  br label %14

14:                                               ; preds = %31, %1
  %15 = load i32, ptr %5, align 4, !tbaa !16
  %16 = getelementptr inbounds nuw %class.buffer, ptr %6, i32 0, i32 1
  %17 = load i32, ptr %16, align 8, !tbaa !25
  %18 = icmp ult i32 %15, %17
  br i1 %18, label %20, label %19

19:                                               ; preds = %14
  call void @llvm.lifetime.end.p0(i64 4, ptr %5) #3
  br label %34

20:                                               ; preds = %14
  %21 = load ptr, ptr %4, align 8, !tbaa !11
  %22 = load i32, ptr %5, align 4, !tbaa !16
  %23 = zext i32 %22 to i64
  %24 = getelementptr inbounds nuw i32, ptr %21, i64 %23
  %25 = getelementptr inbounds nuw %class.buffer, ptr %6, i32 0, i32 0
  %26 = load ptr, ptr %25, align 8, !tbaa !23
  %27 = load i32, ptr %5, align 4, !tbaa !16
  %28 = zext i32 %27 to i64
  %29 = getelementptr inbounds nuw i32, ptr %26, i64 %28
  %30 = load i32, ptr %29, align 4, !tbaa !16
  store i32 %30, ptr %24, align 4, !tbaa !16
  br label %31

31:                                               ; preds = %20
  %32 = load i32, ptr %5, align 4, !tbaa !16
  %33 = add i32 %32, 1
  store i32 %33, ptr %5, align 4, !tbaa !16
  br label %14, !llvm.loop !87

34:                                               ; preds = %19
  call void @_ZN6bufferIjLb1ELj16EE11free_memoryEv(ptr noundef nonnull align 8 dereferenceable(80) %6)
  %35 = load ptr, ptr %4, align 8, !tbaa !11
  %36 = getelementptr inbounds nuw %class.buffer, ptr %6, i32 0, i32 0
  store ptr %35, ptr %36, align 8, !tbaa !23
  %37 = load i32, ptr %3, align 4, !tbaa !16
  %38 = getelementptr inbounds nuw %class.buffer, ptr %6, i32 0, i32 2
  store i32 %37, ptr %38, align 4, !tbaa !26
  call void @llvm.lifetime.end.p0(i64 8, ptr %4) #3
  call void @llvm.lifetime.end.p0(i64 4, ptr %3) #3
  ret void
}

; Function Attrs: mustprogress nounwind uwtable
define linkonce_odr hidden void @_ZN6bufferIjLb1ELj16EED2Ev(ptr noundef nonnull align 8 dereferenceable(80) %0) unnamed_addr #6 comdat align 2 personality ptr @__gxx_personality_v0 {
  %2 = alloca ptr, align 8
  store ptr %0, ptr %2, align 8, !tbaa !21
  %3 = load ptr, ptr %2, align 8
  invoke void @_ZN6bufferIjLb1ELj16EE7destroyEv(ptr noundef nonnull align 8 dereferenceable(80) %3)
          to label %4 unwind label %5

4:                                                ; preds = %1
  ret void

5:                                                ; preds = %1
  %6 = landingpad { ptr, i32 }
          catch ptr null
  %7 = extractvalue { ptr, i32 } %6, 0
  call void @__clang_call_terminate(ptr %7) #14
  unreachable
}

; Function Attrs: mustprogress uwtable
define linkonce_odr hidden void @_ZN6bufferIjLb1ELj16EE9push_backERKj(ptr noundef nonnull align 8 dereferenceable(80) %0, ptr noundef nonnull align 4 dereferenceable(4) %1) #4 comdat align 2 {
  %3 = alloca ptr, align 8
  %4 = alloca ptr, align 8
  store ptr %0, ptr %3, align 8, !tbaa !21
  store ptr %1, ptr %4, align 8, !tbaa !11
  %5 = load ptr, ptr %3, align 8
  %6 = getelementptr inbounds nuw %class.buffer, ptr %5, i32 0, i32 1
  %7 = load i32, ptr %6, align 8, !tbaa !25
  %8 = getelementptr inbounds nuw %class.buffer, ptr %5, i32 0, i32 2
  %9 = load i32, ptr %8, align 4, !tbaa !26
  %10 = icmp uge i32 %7, %9
  br i1 %10, label %11, label %12

11:                                               ; preds = %2
  call void @_ZN6bufferIjLb1ELj16EE6expandEv(ptr noundef nonnull align 8 dereferenceable(80) %5)
  br label %12

12:                                               ; preds = %11, %2
  %13 = getelementptr inbounds nuw %class.buffer, ptr %5, i32 0, i32 0
  %14 = load ptr, ptr %13, align 8, !tbaa !23
  %15 = getelementptr inbounds nuw %class.buffer, ptr %5, i32 0, i32 1
  %16 = load i32, ptr %15, align 8, !tbaa !25
  %17 = zext i32 %16 to i64
  %18 = getelementptr inbounds nuw i32, ptr %14, i64 %17
  %19 = load ptr, ptr %4, align 8, !tbaa !11
  %20 = load i32, ptr %19, align 4, !tbaa !16
  store i32 %20, ptr %18, align 4, !tbaa !16
  %21 = getelementptr inbounds nuw %class.buffer, ptr %5, i32 0, i32 1
  %22 = load i32, ptr %21, align 8, !tbaa !25
  %23 = add i32 %22, 1
  store i32 %23, ptr %21, align 8, !tbaa !25
  ret void
}

; Function Attrs: mustprogress nounwind uwtable
define linkonce_odr hidden void @_ZN6bufferIjLb1ELj16EEC2Ev(ptr noundef nonnull align 8 dereferenceable(80) %0) unnamed_addr #6 comdat align 2 {
  %2 = alloca ptr, align 8
  store ptr %0, ptr %2, align 8, !tbaa !21
  %3 = load ptr, ptr %2, align 8
  %4 = getelementptr inbounds nuw %class.buffer, ptr %3, i32 0, i32 0
  %5 = getelementptr inbounds nuw %class.buffer, ptr %3, i32 0, i32 3
  %6 = getelementptr inbounds [64 x i8], ptr %5, i64 0, i64 0
  store ptr %6, ptr %4, align 8, !tbaa !23
  %7 = getelementptr inbounds nuw %class.buffer, ptr %3, i32 0, i32 1
  store i32 0, ptr %7, align 8, !tbaa !25
  %8 = getelementptr inbounds nuw %class.buffer, ptr %3, i32 0, i32 2
  store i32 16, ptr %8, align 4, !tbaa !26
  ret void
}

; Function Attrs: mustprogress uwtable
define hidden void @_ZN7zstringC2Ej(ptr noundef nonnull align 8 dereferenceable(80) %0, i32 noundef %1) unnamed_addr #4 align 2 personality ptr @__gxx_personality_v0 {
  %3 = alloca ptr, align 8
  %4 = alloca i32, align 4
  %5 = alloca ptr, align 8
  %6 = alloca i32, align 4
  store ptr %0, ptr %3, align 8, !tbaa !3
  store i32 %1, ptr %4, align 4, !tbaa !16
  %7 = load ptr, ptr %3, align 8
  %8 = getelementptr inbounds nuw %class.zstring, ptr %7, i32 0, i32 0
  call void @_ZN6bufferIjLb1ELj16EEC2Ev(ptr noundef nonnull align 8 dereferenceable(80) %8) #3
  %9 = getelementptr inbounds nuw %class.zstring, ptr %7, i32 0, i32 0
  invoke void @_ZN6bufferIjLb1ELj16EE9push_backERKj(ptr noundef nonnull align 8 dereferenceable(80) %9, ptr noundef nonnull align 4 dereferenceable(4) %4)
          to label %10 unwind label %11

10:                                               ; preds = %2
  ret void

11:                                               ; preds = %2
  %12 = landingpad { ptr, i32 }
          cleanup
  %13 = extractvalue { ptr, i32 } %12, 0
  store ptr %13, ptr %5, align 8
  %14 = extractvalue { ptr, i32 } %12, 1
  store i32 %14, ptr %6, align 4
  call void @_ZN6bufferIjLb1ELj16EED2Ev(ptr noundef nonnull align 8 dereferenceable(80) %8) #3
  br label %15

15:                                               ; preds = %11
  %16 = load ptr, ptr %5, align 8
  %17 = load i32, ptr %6, align 4
  %18 = insertvalue { ptr, i32 } poison, ptr %16, 0
  %19 = insertvalue { ptr, i32 } %18, i32 %17, 1
  resume { ptr, i32 } %19
}