; Function Attrs: mustprogress nofree norecurse nosync nounwind willreturn memory(argmem: write) uwtable
define hidden void @_ZN7zstringC2Ej(ptr noundef nonnull align 8 dereferenceable(80) %0, i32 noundef %1) unnamed_addr #6 align 2 personality ptr @__gxx_personality_v0 {
  %3 = getelementptr inbounds nuw i8, ptr %0, i64 16
  store ptr %3, ptr %0, align 8, !tbaa !13
  %4 = getelementptr inbounds nuw i8, ptr %0, i64 8
  %5 = getelementptr inbounds nuw i8, ptr %0, i64 12
  store i32 16, ptr %5, align 4, !tbaa !17
  store i32 %1, ptr %3, align 8, !tbaa !9
  store i32 1, ptr %4, align 8, !tbaa !16
  ret void
}